target datalayout = "e-m:e-p270:32:32-p271:32:32-p272:64:64-i64:64-i128:128-f80:128-n8:16:32:64-S128"
target triple = "x86_64-unknown-linux-gnu"

%struct.MetaBlockSplit = type { %struct.BlockSplit, %struct.BlockSplit, %struct.BlockSplit, ptr, i64, ptr, i64, ptr, i64, ptr, i64, ptr, i64 }
%struct.BlockSplit = type { i64, i64, ptr, ptr, i64, i64 }
%struct.HistogramLiteral = type { [256 x i32], i64, double }
%struct.HistogramDistance = type { [544 x i32], i64, double }
%struct.HistogramCommand = type { [704 x i32], i64, double }

; Function Attrs: nounwind uwtable
define hidden void @BrotliOptimizeHistograms(i32 noundef %num_distance_codes, ptr noundef %mb) #0 {
entry:
  %num_distance_codes.addr = alloca i32, align 4
  %mb.addr = alloca ptr, align 8
  %good_for_rle = alloca [704 x i8], align 16
  %i = alloca i64, align 8
  store i32 %num_distance_codes, ptr %num_distance_codes.addr, align 4
  store ptr %mb, ptr %mb.addr, align 8
  store i64 0, ptr %i, align 8
  br label %for.cond

for.cond:                                         ; preds = %for.inc, %entry
  %0 = load i64, ptr %i, align 8
  %1 = load ptr, ptr %mb.addr, align 8
  %literal_histograms_size = getelementptr inbounds %struct.MetaBlockSplit, ptr %1, i32 0, i32 8
  %2 = load i64, ptr %literal_histograms_size, align 8
  %cmp = icmp ult i64 %0, %2
  br i1 %cmp, label %for.body, label %for.end

for.body:                                         ; preds = %for.cond
  %3 = load ptr, ptr %mb.addr, align 8
  %literal_histograms = getelementptr inbounds %struct.MetaBlockSplit, ptr %3, i32 0, i32 7
  %4 = load ptr, ptr %literal_histograms, align 8
  %5 = load i64, ptr %i, align 8
  %arrayidx = getelementptr inbounds %struct.HistogramLiteral, ptr %4, i64 %5
  %data_ = getelementptr inbounds %struct.HistogramLiteral, ptr %arrayidx, i32 0, i32 0
  %arraydecay = getelementptr inbounds [256 x i32], ptr %data_, i64 0, i64 0
  %arraydecay1 = getelementptr inbounds [704 x i8], ptr %good_for_rle, i64 0, i64 0
  call void @BrotliOptimizeHuffmanCountsForRle(i64 noundef 256, ptr noundef %arraydecay, ptr noundef %arraydecay1)
  br label %for.inc

for.inc:                                          ; preds = %for.body
  %6 = load i64, ptr %i, align 8
  %inc = add i64 %6, 1
  store i64 %inc, ptr %i, align 8
  br label %for.cond, !llvm.loop !19

for.end:                                          ; preds = %for.cond
  store i64 0, ptr %i, align 8
  br label %for.cond2

for.cond2:                                        ; preds = %for.inc9, %for.end
  %7 = load i64, ptr %i, align 8
  %8 = load ptr, ptr %mb.addr, align 8
  %command_histograms_size = getelementptr inbounds %struct.MetaBlockSplit, ptr %8, i32 0, i32 10
  %9 = load i64, ptr %command_histograms_size, align 8
  %cmp3 = icmp ult i64 %7, %9
  br i1 %cmp3, label %for.body4, label %for.end11

for.body4:                                        ; preds = %for.cond2
  %10 = load ptr, ptr %mb.addr, align 8
  %command_histograms = getelementptr inbounds %struct.MetaBlockSplit, ptr %10, i32 0, i32 9
  %11 = load ptr, ptr %command_histograms, align 8
  %12 = load i64, ptr %i, align 8
  %arrayidx5 = getelementptr inbounds %struct.HistogramCommand, ptr %11, i64 %12
  %data_6 = getelementptr inbounds %struct.HistogramCommand, ptr %arrayidx5, i32 0, i32 0
  %arraydecay7 = getelementptr inbounds [704 x i32], ptr %data_6, i64 0, i64 0
  %arraydecay8 = getelementptr inbounds [704 x i8], ptr %good_for_rle, i64 0, i64 0
  call void @BrotliOptimizeHuffmanCountsForRle(i64 noundef 704, ptr noundef %arraydecay7, ptr noundef %arraydecay8)
  br label %for.inc9

for.inc9:                                         ; preds = %for.body4
  %13 = load i64, ptr %i, align 8
  %inc10 = add i64 %13, 1
  store i64 %inc10, ptr %i, align 8
  br label %for.cond2, !llvm.loop !20

for.end11:                                        ; preds = %for.cond2
  store i64 0, ptr %i, align 8
  br label %for.cond12

for.cond12:                                       ; preds = %for.inc19, %for.end11
  %14 = load i64, ptr %i, align 8
  %15 = load ptr, ptr %mb.addr, align 8
  %distance_histograms_size = getelementptr inbounds %struct.MetaBlockSplit, ptr %15, i32 0, i32 12
  %16 = load i64, ptr %distance_histograms_size, align 8
  %cmp13 = icmp ult i64 %14, %16
  br i1 %cmp13, label %for.body14, label %for.end21

for.body14:                                       ; preds = %for.cond12
  %17 = load i32, ptr %num_distance_codes.addr, align 4
  %conv = zext i32 %17 to i64
  %18 = load ptr, ptr %mb.addr, align 8
  %distance_histograms = getelementptr inbounds %struct.MetaBlockSplit, ptr %18, i32 0, i32 11
  %19 = load ptr, ptr %distance_histograms, align 8
  %20 = load i64, ptr %i, align 8
  %arrayidx15 = getelementptr inbounds %struct.HistogramDistance, ptr %19, i64 %20
  %data_16 = getelementptr inbounds %struct.HistogramDistance, ptr %arrayidx15, i32 0, i32 0
  %arraydecay17 = getelementptr inbounds [544 x i32], ptr %data_16, i64 0, i64 0
  %arraydecay18 = getelementptr inbounds [704 x i8], ptr %good_for_rle, i64 0, i64 0
  call void @BrotliOptimizeHuffmanCountsForRle(i64 noundef %conv, ptr noundef %arraydecay17, ptr noundef %arraydecay18)
  br label %for.inc19

for.inc19:                                        ; preds = %for.body14
  %21 = load i64, ptr %i, align 8
  %inc20 = add i64 %21, 1
  store i64 %inc20, ptr %i, align 8
  br label %for.cond12, !llvm.loop !21

for.end21:                                        ; preds = %for.cond12
  ret void
}