; Function Attrs: nounwind uwtable
define hidden void @BrotliOptimizeHistograms(i32 noundef %num_distance_codes, ptr noundef readonly captures(none) %mb) local_unnamed_addr #1 {
entry:
  %good_for_rle = alloca [704 x i8], align 16
  %literal_histograms_size = getelementptr inbounds nuw i8, ptr %mb, i64 184
  %0 = load i64, ptr %literal_histograms_size, align 8
  %cmp14.not = icmp eq i64 %0, 0
  br i1 %cmp14.not, label %for.cond2.preheader, label %for.body.lr.ph

for.body.lr.ph:                                   ; preds = %entry
  %literal_histograms = getelementptr inbounds nuw i8, ptr %mb, i64 176
  br label %for.body

for.cond2.preheader:                              ; preds = %for.body, %entry
  %command_histograms_size = getelementptr inbounds nuw i8, ptr %mb, i64 200
  %1 = load i64, ptr %command_histograms_size, align 8
  %cmp316.not = icmp eq i64 %1, 0
  br i1 %cmp316.not, label %for.cond12.preheader, label %for.body4.lr.ph

for.body4.lr.ph:                                  ; preds = %for.cond2.preheader
  %command_histograms = getelementptr inbounds nuw i8, ptr %mb, i64 192
  br label %for.body4

for.body:                                         ; preds = %for.body.lr.ph, %for.body
  %i.015 = phi i64 [ 0, %for.body.lr.ph ], [ %inc, %for.body ]
  %2 = load ptr, ptr %literal_histograms, align 8
  %arrayidx = getelementptr inbounds %struct.HistogramLiteral, ptr %2, i64 %i.015
  call void @BrotliOptimizeHuffmanCountsForRle(i64 noundef 256, ptr noundef %arrayidx, ptr noundef nonnull %good_for_rle) #9
  %inc = add nuw i64 %i.015, 1
  %3 = load i64, ptr %literal_histograms_size, align 8
  %cmp = icmp ult i64 %inc, %3
  br i1 %cmp, label %for.body, label %for.cond2.preheader, !llvm.loop !25

for.cond12.preheader:                             ; preds = %for.body4, %for.cond2.preheader
  %distance_histograms_size = getelementptr inbounds nuw i8, ptr %mb, i64 216
  %4 = load i64, ptr %distance_histograms_size, align 8
  %cmp1318.not = icmp eq i64 %4, 0
  br i1 %cmp1318.not, label %for.end21, label %for.body14.lr.ph

for.body14.lr.ph:                                 ; preds = %for.cond12.preheader
  %conv = zext i32 %num_distance_codes to i64
  %distance_histograms = getelementptr inbounds nuw i8, ptr %mb, i64 208
  br label %for.body14

for.body4:                                        ; preds = %for.body4.lr.ph, %for.body4
  %i.117 = phi i64 [ 0, %for.body4.lr.ph ], [ %inc10, %for.body4 ]
  %5 = load ptr, ptr %command_histograms, align 8
  %arrayidx5 = getelementptr inbounds %struct.HistogramCommand, ptr %5, i64 %i.117
  call void @BrotliOptimizeHuffmanCountsForRle(i64 noundef 704, ptr noundef %arrayidx5, ptr noundef nonnull %good_for_rle) #9
  %inc10 = add nuw i64 %i.117, 1
  %6 = load i64, ptr %command_histograms_size, align 8
  %cmp3 = icmp ult i64 %inc10, %6
  br i1 %cmp3, label %for.body4, label %for.cond12.preheader, !llvm.loop !26

for.body14:                                       ; preds = %for.body14.lr.ph, %for.body14
  %i.219 = phi i64 [ 0, %for.body14.lr.ph ], [ %inc20, %for.body14 ]
  %7 = load ptr, ptr %distance_histograms, align 8
  %arrayidx15 = getelementptr inbounds %struct.HistogramDistance, ptr %7, i64 %i.219
  call void @BrotliOptimizeHuffmanCountsForRle(i64 noundef %conv, ptr noundef %arrayidx15, ptr noundef nonnull %good_for_rle) #9
  %inc20 = add nuw i64 %i.219, 1
  %8 = load i64, ptr %distance_histograms_size, align 8
  %cmp13 = icmp ult i64 %inc20, %8
  br i1 %cmp13, label %for.body14, label %for.end21, !llvm.loop !27

for.end21:                                        ; preds = %for.body14, %for.cond12.preheader
  ret void
}